; Function Attrs: nounwind sspstrong uwtable
define dso_local i64 @rb_enc_vsprintf(ptr noundef %0, ptr noundef nonnull %1, ptr noundef %2) local_unnamed_addr #0 {
  %4 = tail call i64 @rb_str_buf_new(i64 noundef 120) #21
  %.not = icmp eq ptr %0, null
  br i1 %.not, label %13, label %5

5:                                                ; preds = %3
  %6 = getelementptr i8, ptr %0, i64 20
  %.val = load i32, ptr %6, align 4, !tbaa !106
  %7 = icmp sgt i32 %.val, 1
  br i1 %7, label %8, label %11

8:                                                ; preds = %5
  %9 = load i64, ptr @rb_eArgError, align 8, !tbaa !7
  %10 = getelementptr i8, ptr %0, i64 8
  %.val9 = load ptr, ptr %10, align 8, !tbaa !107
  tail call void (i64, ptr, ...) @rb_raise(i64 noundef %9, ptr noundef nonnull @.str.33, ptr noundef %.val9) #20
  unreachable

11:                                               ; preds = %5
  %12 = tail call i64 @rb_enc_associate(i64 noundef %4, ptr noundef nonnull %0) #21
  br label %13

13:                                               ; preds = %11, %3
  %14 = inttoptr i64 %4 to ptr
  %15 = load i64, ptr %14, align 8, !tbaa !11, !noalias !124
  %16 = and i64 %15, 8192
  %.not.i.i = icmp eq i64 %16, 0
  %17 = getelementptr inbounds nuw i8, ptr %14, i64 24
  br i1 %.not.i.i, label %RSTRING_PTR.exit, label %18

18:                                               ; preds = %13
  %.sroa.2.0.copyload.i = load ptr, ptr %17, align 8
  br label %RSTRING_PTR.exit

RSTRING_PTR.exit:                                 ; preds = %13, %18
  %.sroa.2.0.i = phi ptr [ %.sroa.2.0.copyload.i, %18 ], [ %17, %13 ]
  tail call fastcc void @ruby_vsprintf0(i64 noundef %4, ptr noundef %.sroa.2.0.i, ptr noundef %1, ptr noundef %2)
  ret i64 %4
}